; Function Attrs: mustprogress uwtable
define void @_ZN9grpc_core10HPackTable11SetMaxBytesEj(ptr noundef nonnull align 8 captures(none) dereferenceable(72) %0, i32 noundef %1) local_unnamed_addr #8 align 2 personality ptr @__gxx_personality_v0 {
  %3 = alloca i32, align 4
  %4 = alloca %"class.absl::lts_20240722::log_internal::LogMessage", align 8
  %5 = getelementptr inbounds nuw i8, ptr %0, i64 4
  %6 = load i32, ptr %5, align 4, !tbaa !62
  %7 = icmp eq i32 %6, %1
  br i1 %7, label %19, label %8

8:                                                ; preds = %2
  %9 = load atomic i8, ptr getelementptr inbounds nuw (i8, ptr @_ZN9grpc_core10http_traceE, i64 16) monotonic, align 8
  %10 = trunc i8 %9 to i1
  br i1 %10, label %11, label %.critedge12, !prof !41

11:                                               ; preds = %8
  call void @llvm.lifetime.start.p0(i64 16, ptr nonnull %4) #31
  call void @_ZN4absl12lts_2024072212log_internal10LogMessageC1EPKciNS2_7InfoTagE(ptr noundef nonnull align 8 dereferenceable(16) %4, ptr noundef nonnull @.str.1, i32 noundef 131) #32
  invoke void @_ZN4absl12lts_2024072212log_internal10LogMessage19CopyToEncodedBufferILNS2_10StringTypeE0EEEvSt17basic_string_viewIcSt11char_traitsIcEE(ptr noundef nonnull align 8 dereferenceable(16) %4, i64 32, ptr nonnull @.str.4)
          to label %_ZN4absl12lts_2024072212log_internal10LogMessagelsILi33EEERS2_RAT__Kc.exit unwind label %17

_ZN4absl12lts_2024072212log_internal10LogMessagelsILi33EEERS2_RAT__Kc.exit: ; preds = %11
  call void @llvm.lifetime.start.p0(i64 4, ptr nonnull %3)
  store i32 %1, ptr %3, align 4, !tbaa !63
  %12 = invoke noundef nonnull align 8 dereferenceable(16) ptr @_ZN4absl12lts_2024072212log_internal10LogMessagelsIjTnNSt9enable_ifIXntsr4absl16HasAbslStringifyIT_EE5valueEiE4typeELi0EEERS2_RKS5_(ptr noundef nonnull align 8 dereferenceable(16) %4, ptr noundef nonnull align 4 dereferenceable(4) %3)
          to label %.critedge unwind label %17

.critedge:                                        ; preds = %_ZN4absl12lts_2024072212log_internal10LogMessagelsILi33EEERS2_RAT__Kc.exit
  call void @llvm.lifetime.end.p0(i64 4, ptr nonnull %3)
  call void @_ZN4absl12lts_2024072212log_internal10LogMessageD1Ev(ptr noundef nonnull align 8 dereferenceable(16) %4) #37
  call void @llvm.lifetime.end.p0(i64 16, ptr nonnull %4) #31
  br label %.critedge12

.critedge12:                                      ; preds = %8, %.critedge
  %13 = load i32, ptr %0, align 8, !tbaa !59
  %14 = icmp ugt i32 %13, %1
  br i1 %14, label %.lr.ph, label %._crit_edge

.lr.ph:                                           ; preds = %.critedge12, %.lr.ph
  call void @_ZN9grpc_core10HPackTable8EvictOneEv(ptr noundef nonnull align 8 dereferenceable(72) %0)
  %15 = load i32, ptr %0, align 8, !tbaa !59
  %16 = icmp ugt i32 %15, %1
  br i1 %16, label %.lr.ph, label %._crit_edge, !llvm.loop !64

17:                                               ; preds = %_ZN4absl12lts_2024072212log_internal10LogMessagelsILi33EEERS2_RAT__Kc.exit, %11
  %18 = landingpad { ptr, i32 }
          cleanup
  call void @_ZN4absl12lts_2024072212log_internal10LogMessageD1Ev(ptr noundef nonnull align 8 dereferenceable(16) %4) #37
  call void @llvm.lifetime.end.p0(i64 16, ptr nonnull %4) #31
  resume { ptr, i32 } %18

._crit_edge:                                      ; preds = %.lr.ph, %.critedge12
  store i32 %1, ptr %5, align 4, !tbaa !62
  br label %19

19:                                               ; preds = %2, %._crit_edge
  ret void
}